target datalayout = "e-m:e-p270:32:32-p271:32:32-p272:64:64-i64:64-i128:128-f80:128-n8:16:32:64-S128"
target triple = "x86_64-pc-linux-gnu"

; Function Attrs: nounwind uwtable
define hidden ptr @lj_alloc_f(ptr noundef %0, ptr noundef %1, i64 noundef %2, i64 noundef %3) #0 {
  %5 = alloca ptr, align 8
  %6 = alloca ptr, align 8
  %7 = alloca ptr, align 8
  %8 = alloca i64, align 8
  %9 = alloca i64, align 8
  store ptr %0, ptr %6, align 8, !tbaa !27
  store ptr %1, ptr %7, align 8, !tbaa !27
  store i64 %2, ptr %8, align 8, !tbaa !9
  store i64 %3, ptr %9, align 8, !tbaa !9
  %10 = load i64, ptr %9, align 8, !tbaa !9
  %11 = icmp eq i64 %10, 0
  br i1 %11, label %12, label %16

12:                                               ; preds = %4
  %13 = load ptr, ptr %6, align 8, !tbaa !27
  %14 = load ptr, ptr %7, align 8, !tbaa !27
  %15 = call ptr @lj_alloc_free(ptr noundef %13, ptr noundef %14)
  store ptr %15, ptr %5, align 8
  br label %28

16:                                               ; preds = %4
  %17 = load ptr, ptr %7, align 8, !tbaa !27
  %18 = icmp eq ptr %17, null
  br i1 %18, label %19, label %23

19:                                               ; preds = %16
  %20 = load ptr, ptr %6, align 8, !tbaa !27
  %21 = load i64, ptr %9, align 8, !tbaa !9
  %22 = call ptr @lj_alloc_malloc(ptr noundef %20, i64 noundef %21)
  store ptr %22, ptr %5, align 8
  br label %28

23:                                               ; preds = %16
  %24 = load ptr, ptr %6, align 8, !tbaa !27
  %25 = load ptr, ptr %7, align 8, !tbaa !27
  %26 = load i64, ptr %9, align 8, !tbaa !9
  %27 = call ptr @lj_alloc_realloc(ptr noundef %24, ptr noundef %25, i64 noundef %26)
  store ptr %27, ptr %5, align 8
  br label %28

28:                                               ; preds = %23, %19, %12
  %29 = load ptr, ptr %5, align 8
  ret ptr %29
}