; Function Attrs: nounwind uwtable
define hidden ptr @lj_alloc_f(ptr noundef %0, ptr noundef %1, i64 noundef %2, i64 noundef %3) local_unnamed_addr #0 {
  %5 = icmp eq i64 %3, 0
  br i1 %5, label %6, label %7

6:                                                ; preds = %4
  tail call fastcc void @lj_alloc_free(ptr noundef %0, ptr noundef %1)
  br label %13

7:                                                ; preds = %4
  %8 = icmp eq ptr %1, null
  br i1 %8, label %9, label %11

9:                                                ; preds = %7
  %10 = tail call fastcc ptr @lj_alloc_malloc(ptr noundef %0, i64 noundef %3)
  br label %13

11:                                               ; preds = %7
  %12 = tail call fastcc ptr @lj_alloc_realloc(ptr noundef %0, ptr noundef %1, i64 noundef %3)
  br label %13

13:                                               ; preds = %11, %9, %6
  %.0 = phi ptr [ null, %6 ], [ %10, %9 ], [ %12, %11 ]
  ret ptr %.0
}